target datalayout = "e-m:e-p270:32:32-p271:32:32-p272:64:64-i64:64-i128:128-f80:128-n8:16:32:64-S128"
target triple = "x86_64-pc-linux-gnu"

%"class.llvm::StringRef" = type { ptr, i64 }
%"struct.llvm::ARM::FPUName" = type { %"class.llvm::StringRef", i32, i32, i32, i32 }

; Function Attrs: mustprogress nounwind uwtable
define linkonce_odr hidden void @_ZN4llvm9StringRefC2Ev(ptr noundef nonnull align 8 dereferenceable(16) %0) unnamed_addr #0 comdat align 2 {
  %2 = alloca ptr, align 8
  store ptr %0, ptr %2, align 8
  %3 = load ptr, ptr %2, align 8
  %4 = getelementptr inbounds nuw %"class.llvm::StringRef", ptr %3, i32 0, i32 0
  store ptr null, ptr %4, align 8
  %5 = getelementptr inbounds nuw %"class.llvm::StringRef", ptr %3, i32 0, i32 1
  store i64 0, ptr %5, align 8
  ret void
}

; Function Attrs: mustprogress nounwind uwtable
define dso_local { ptr, i64 } @_ZN4llvm3ARM10getFPUNameENS0_7FPUKindE(i32 noundef %0) #0 {
  %2 = alloca %"class.llvm::StringRef", align 8
  %3 = alloca i32, align 4
  store i32 %0, ptr %3, align 4
  %4 = load i32, ptr %3, align 4
  %5 = icmp sge i32 %4, 24
  br i1 %5, label %6, label %7

6:                                                ; preds = %1
  call void @llvm.memset.p0.i64(ptr align 8 %2, i8 0, i64 16, i1 false)
  call void @_ZN4llvm9StringRefC2Ev(ptr noundef nonnull align 8 dereferenceable(16) %2) #10
  br label %12

7:                                                ; preds = %1
  %8 = load i32, ptr %3, align 4
  %9 = zext i32 %8 to i64
  %10 = getelementptr inbounds [24 x %"struct.llvm::ARM::FPUName"], ptr @_ZN4llvm3ARML8FPUNamesE, i64 0, i64 %9
  %11 = getelementptr inbounds nuw %"struct.llvm::ARM::FPUName", ptr %10, i32 0, i32 0
  call void @llvm.memcpy.p0.p0.i64(ptr align 8 %2, ptr align 16 %11, i64 16, i1 false)
  br label %12

12:                                               ; preds = %7, %6
  %13 = load { ptr, i64 }, ptr %2, align 8
  ret { ptr, i64 } %13
}