; Function Attrs: mustprogress nofree norecurse nosync nounwind willreturn memory(none) uwtable
define dso_local { ptr, i64 } @_ZN4llvm3ARM10getFPUNameENS0_7FPUKindE(i32 noundef %0) local_unnamed_addr #5 {
  %2 = icmp sgt i32 %0, 23
  br i1 %2, label %6, label %3

3:                                                ; preds = %1
  %4 = zext i32 %0 to i64
  %5 = getelementptr inbounds [24 x %"struct.llvm::ARM::FPUName"], ptr @_ZN4llvm3ARML8FPUNamesE, i64 0, i64 %4
  %.sroa.0.0.copyload = load ptr, ptr %5, align 16
  %.sroa.4.0..sroa_idx = getelementptr inbounds i8, ptr %5, i64 8
  %.sroa.4.0.copyload = load i64, ptr %.sroa.4.0..sroa_idx, align 8
  br label %6

6:                                                ; preds = %1, %3
  %.sroa.0.0 = phi ptr [ %.sroa.0.0.copyload, %3 ], [ null, %1 ]
  %.sroa.4.0 = phi i64 [ %.sroa.4.0.copyload, %3 ], [ 0, %1 ]
  %.fca.0.insert = insertvalue { ptr, i64 } poison, ptr %.sroa.0.0, 0
  %.fca.1.insert = insertvalue { ptr, i64 } %.fca.0.insert, i64 %.sroa.4.0, 1
  ret { ptr, i64 } %.fca.1.insert
}